; Function Attrs: mustprogress nounwind uwtable
define internal void @_ZN5osgeo4proj12_GLOBAL__N_120pj_sqlite3_customvfsD2Ev(ptr noundef nonnull align 8 dereferenceable(208) initializes((0, 8)) %0) unnamed_addr #0 align 2 personality ptr @__gxx_personality_v0 {
  store ptr getelementptr inbounds nuw inrange(-16, 16) (i8, ptr @_ZTVN5osgeo4proj12_GLOBAL__N_120pj_sqlite3_customvfsE, i64 16), ptr %0, align 8, !tbaa !3
  %2 = getelementptr inbounds nuw i8, ptr %0, i64 40
  %3 = load ptr, ptr %2, align 8, !tbaa !49
  %4 = icmp eq ptr %3, null
  br i1 %4, label %6, label %5

5:                                                ; preds = %1
  tail call void @_ZdlPvm(ptr noundef nonnull %3, i64 noundef 16) #23
  br label %6

6:                                                ; preds = %5, %1
  store ptr null, ptr %2, align 8, !tbaa !49
  store ptr getelementptr inbounds nuw inrange(-16, 16) (i8, ptr @_ZTVN5osgeo4proj14pj_sqlite3_vfsE, i64 16), ptr %0, align 8, !tbaa !3
  %7 = getelementptr inbounds nuw i8, ptr %0, i64 176
  %8 = load ptr, ptr %7, align 8, !tbaa !6
  %9 = getelementptr inbounds nuw i8, ptr %0, i64 192
  %10 = icmp eq ptr %8, %9
  br i1 %10, label %_ZNKSt7__cxx1112basic_stringIcSt11char_traitsIcESaIcEE11_M_is_localEv.exit.thread.i.i.i, label %_ZNKSt7__cxx1112basic_stringIcSt11char_traitsIcESaIcEE11_M_is_localEv.exit.i.i.i

_ZNKSt7__cxx1112basic_stringIcSt11char_traitsIcESaIcEE11_M_is_localEv.exit.thread.i.i.i: ; preds = %6
  %11 = getelementptr inbounds nuw i8, ptr %0, i64 184
  %12 = load i64, ptr %11, align 8, !tbaa !13
  %13 = icmp ult i64 %12, 16
  tail call void @llvm.assume(i1 %13)
  br label %_ZN5osgeo4proj14pj_sqlite3_vfsD2Ev.exit

_ZNKSt7__cxx1112basic_stringIcSt11char_traitsIcESaIcEE11_M_is_localEv.exit.i.i.i: ; preds = %6
  %14 = load i64, ptr %9, align 8, !tbaa !14
  %15 = add i64 %14, 1
  tail call void @_ZdlPvm(ptr noundef %8, i64 noundef %15) #23
  br label %_ZN5osgeo4proj14pj_sqlite3_vfsD2Ev.exit

_ZN5osgeo4proj14pj_sqlite3_vfsD2Ev.exit:          ; preds = %_ZNKSt7__cxx1112basic_stringIcSt11char_traitsIcESaIcEE11_M_is_localEv.exit.thread.i.i.i, %_ZNKSt7__cxx1112basic_stringIcSt11char_traitsIcESaIcEE11_M_is_localEv.exit.i.i.i
  ret void
}